ccopy_reg
_reconstructor
p1
(cmatplotlib.font_manager
FontManager
p2
c__builtin__
object
p3
NtRp4
(dp5
S'ttflist'
p6
(lp7
g1
(cmatplotlib.font_manager
FontEntry
p8
g3
NtRp9
(dp10
S'style'
p11
Voblique
p12
sS'name'
p13
VDejaVu Sans Mono
p14
sS'weight'
p15
I400
sS'stretch'
p16
Vnormal
p17
sS'variant'
p18
g17
sS'fname'
p19
V/usr/local/lib/python2.7/site-packages/matplotlib/mpl-data/fonts/ttf/DejaVuSansMono-Oblique.ttf
p20
sS'size'
p21
Vscalable
p22
sbag1
(g8
g3
NtRp23
(dp24
g11
g12
sg13
VDejaVu Sans
p25
sg15
I400
sg16
g17
sg18
g17
sg19
V/usr/local/lib/python2.7/site-packages/matplotlib/mpl-data/fonts/ttf/DejaVuSans-Oblique.ttf
p26
sg21
g22
sbag1
(g8
g3
NtRp27
(dp28
g11
g17
sg13
VSTIXSizeOneSym
p29
sg15
I400
sg16
g17
sg18
g17
sg19
V/usr/local/lib/python2.7/site-packages/matplotlib/mpl-data/fonts/ttf/STIXSizOneSymReg.ttf
p30
sg21
g22
sbag1
(g8
g3
NtRp31
(dp32
g11
g17
sg13
VDejaVu Sans Mono
p33
sg15
I400
sg16
g17
sg18
g17
sg19
V/usr/local/lib/python2.7/site-packages/matplotlib/mpl-data/fonts/ttf/DejaVuSansMono.ttf
p34
sg21
g22
sbag1
(g8
g3
NtRp35
(dp36
g11
g17
sg13
Vcmr10
p37
sg15
I400
sg16
g17
sg18
g17
sg19
V/usr/local/lib/python2.7/site-packages/matplotlib/mpl-data/fonts/ttf/cmr10.ttf
p38
sg21
g22
sbag1
(g8
g3
NtRp39
(dp40
g11
g17
sg13
VSTIXSizeFourSym
p41
sg15
I400
sg16
g17
sg18
g17
sg19
V/usr/local/lib/python2.7/site-packages/matplotlib/mpl-data/fonts/ttf/STIXSizFourSymReg.ttf
p42
sg21
g22
sbag1
(g8
g3
NtRp43
(dp44
g11
g17
sg13
VSTIXSizeTwoSym
p45
sg15
I400
sg16
g17
sg18
g17
sg19
V/usr/local/lib/python2.7/site-packages/matplotlib/mpl-data/fonts/ttf/STIXSizTwoSymReg.ttf
p46
sg21
g22
sbag1
(g8
g3
NtRp47
(dp48
g11
g17
sg13
VSTIXSizeThreeSym
p49
sg15
I700
sg16
g17
sg18
g17
sg19
V/usr/local/lib/python2.7/site-packages/matplotlib/mpl-data/fonts/ttf/STIXSizThreeSymBol.ttf
p50
sg21
g22
sbag1
(g8
g3
NtRp51
(dp52
g11
Vitalic
p53
sg13
VSTIXGeneral
p54
sg15
I700
sg16
g17
sg18
g17
sg19
V/usr/local/lib/python2.7/site-packages/matplotlib/mpl-data/fonts/ttf/STIXGeneralBolIta.ttf
p55
sg21
g22
sbag1
(g8
g3
NtRp56
(dp57
g11
g17
sg13
Vcmtt10
p58
sg15
I400
sg16
g17
sg18
g17
sg19
V/usr/local/lib/python2.7/site-packages/matplotlib/mpl-data/fonts/ttf/cmtt10.ttf
p59
sg21
g22
sbag1
(g8
g3
NtRp60
(dp61
g11
g17
sg13
VSTIXSizeTwoSym
p62
sg15
I700
sg16
g17
sg18
g17
sg19
V/usr/local/lib/python2.7/site-packages/matplotlib/mpl-data/fonts/ttf/STIXSizTwoSymBol.ttf
p63
sg21
g22
sbag1
(g8
g3
NtRp64
(dp65
g11
g17
sg13
VSTIXGeneral
p66
sg15
I400
sg16
g17
sg18
g17
sg19
V/usr/local/lib/python2.7/site-packages/matplotlib/mpl-data/fonts/ttf/STIXGeneral.ttf
p67
sg21
g22
sbag1
(g8
g3
NtRp68
(dp69
g11
g17
sg13
Vcmmi10
p70
sg15
I400
sg16
g17
sg18
g17
sg19
V/usr/local/lib/python2.7/site-packages/matplotlib/mpl-data/fonts/ttf/cmmi10.ttf
p71
sg21
g22
sbag1
(g8
g3
NtRp72
(dp73
g11
g17
sg13
VSTIXSizeOneSym
p74
sg15
I700
sg16
g17
sg18
g17
sg19
V/usr/local/lib/python2.7/site-packages/matplotlib/mpl-data/fonts/ttf/STIXSizOneSymBol.ttf
p75
sg21
g22
sbag1
(g8
g3
NtRp76
(dp77
g11
g17
sg13
Vcmb10
p78
sg15
I400
sg16
g17
sg18
g17
sg19
V/usr/local/lib/python2.7/site-packages/matplotlib/mpl-data/fonts/ttf/cmb10.ttf
p79
sg21
g22
sbag1
(g8
g3
NtRp80
(dp81
g11
g17
sg13
VSTIXSizeThreeSym
p82
sg15
I400
sg16
g17
sg18
g17
sg19
V/usr/local/lib/python2.7/site-packages/matplotlib/mpl-data/fonts/ttf/STIXSizThreeSymReg.ttf
p83
sg21
g22
sbag1
(g8
g3
NtRp84
(dp85
g11
g53
sg13
VSTIXNonUnicode
p86
sg15
I400
sg16
g17
sg18
g17
sg19
V/usr/local/lib/python2.7/site-packages/matplotlib/mpl-data/fonts/ttf/STIXNonUniIta.ttf
p87
sg21
g22
sbag1
(g8
g3
NtRp88
(dp89
g11
g53
sg13
VSTIXGeneral
p90
sg15
I400
sg16
g17
sg18
g17
sg19
V/usr/local/lib/python2.7/site-packages/matplotlib/mpl-data/fonts/ttf/STIXGeneralItalic.ttf
p91
sg21
g22
sbag1
(g8
g3
NtRp92
(dp93
g11
g17
sg13
Vcmss10
p94
sg15
I400
sg16
g17
sg18
g17
sg19
V/usr/local/lib/python2.7/site-packages/matplotlib/mpl-data/fonts/ttf/cmss10.ttf
p95
sg21
g22
sbag1
(g8
g3
NtRp96
(dp97
g11
g53
sg13
VDejaVu Serif
p98
sg15
I700
sg16
g17
sg18
g17
sg19
V/usr/local/lib/python2.7/site-packages/matplotlib/mpl-data/fonts/ttf/DejaVuSerif-BoldItalic.ttf
p99
sg21
g22
sbag1
(g8
g3
NtRp100
(dp101
g11
g17
sg13
VDejaVu Sans Mono
p102
sg15
I700
sg16
g17
sg18
g17
sg19
V/usr/local/lib/python2.7/site-packages/matplotlib/mpl-data/fonts/ttf/DejaVuSansMono-Bold.ttf
p103
sg21
g22
sbag1
(g8
g3
NtRp104
(dp105
g11
g17
sg13
VSTIXNonUnicode
p106
sg15
I700
sg16
g17
sg18
g17
sg19
V/usr/local/lib/python2.7/site-packages/matplotlib/mpl-data/fonts/ttf/STIXNonUniBol.ttf
p107
sg21
g22
sbag1
(g8
g3
NtRp108
(dp109
g11
g53
sg13
VSTIXNonUnicode
p110
sg15
I700
sg16
g17
sg18
g17
sg19
V/usr/local/lib/python2.7/site-packages/matplotlib/mpl-data/fonts/ttf/STIXNonUniBolIta.ttf
p111
sg21
g22
sbag1
(g8
g3
NtRp112
(dp113
g11
g17
sg13
VDejaVu Serif
p114
sg15
I700
sg16
g17
sg18
g17
sg19
V/usr/local/lib/python2.7/site-packages/matplotlib/mpl-data/fonts/ttf/DejaVuSerif-Bold.ttf
p115
sg21
g22
sbag1
(g8
g3
NtRp116
(dp117
g11
g17
sg13
VDejaVu Sans Display
p118
sg15
I400
sg16
g17
sg18
g17
sg19
V/usr/local/lib/python2.7/site-packages/matplotlib/mpl-data/fonts/ttf/DejaVuSansDisplay.ttf
p119
sg21
g22
sbag1
(g8
g3
NtRp120
(dp121
g11
g17
sg13
VSTIXGeneral
p122
sg15
I700
sg16
g17
sg18
g17
sg19
V/usr/local/lib/python2.7/site-packages/matplotlib/mpl-data/fonts/ttf/STIXGeneralBol.ttf
p123
sg21
g22
sbag1
(g8
g3
NtRp124
(dp125
g11
g17
sg13
VSTIXNonUnicode
p126
sg15
I400
sg16
g17
sg18
g17
sg19
V/usr/local/lib/python2.7/site-packages/matplotlib/mpl-data/fonts/ttf/STIXNonUni.ttf
p127
sg21
g22
sbag1
(g8
g3
NtRp128
(dp129
g11
g12
sg13
VDejaVu Sans Mono
p130
sg15
I700
sg16
g17
sg18
g17
sg19
V/usr/local/lib/python2.7/site-packages/matplotlib/mpl-data/fonts/ttf/DejaVuSansMono-BoldOblique.ttf
p131
sg21
g22
sbag1
(g8
g3
NtRp132
(dp133
g11
g53
sg13
VDejaVu Serif
p134
sg15
I400
sg16
g17
sg18
g17
sg19
V/usr/local/lib/python2.7/site-packages/matplotlib/mpl-data/fonts/ttf/DejaVuSerif-Italic.ttf
p135
sg21
g22
sbag1
(g8
g3
NtRp136
(dp137
g11
g12
sg13
VDejaVu Sans
p138
sg15
I700
sg16
g17
sg18
g17
sg19
V/usr/local/lib/python2.7/site-packages/matplotlib/mpl-data/fonts/ttf/DejaVuSans-BoldOblique.ttf
p139
sg21
g22
sbag1
(g8
g3
NtRp140
(dp141
g11
g17
sg13
Vcmex10
p142
sg15
I400
sg16
g17
sg18
g17
sg19
V/usr/local/lib/python2.7/site-packages/matplotlib/mpl-data/fonts/ttf/cmex10.ttf
p143
sg21
g22
sbag1
(g8
g3
NtRp144
(dp145
g11
g17
sg13
Vcmsy10
p146
sg15
I400
sg16
g17
sg18
g17
sg19
V/usr/local/lib/python2.7/site-packages/matplotlib/mpl-data/fonts/ttf/cmsy10.ttf
p147
sg21
g22
sbag1
(g8
g3
NtRp148
(dp149
g11
g17
sg13
VDejaVu Serif Display
p150
sg15
I400
sg16
g17
sg18
g17
sg19
V/usr/local/lib/python2.7/site-packages/matplotlib/mpl-data/fonts/ttf/DejaVuSerifDisplay.ttf
p151
sg21
g22
sbag1
(g8
g3
NtRp152
(dp153
g11
g17
sg13
VDejaVu Sans
p154
sg15
I700
sg16
g17
sg18
g17
sg19
V/usr/local/lib/python2.7/site-packages/matplotlib/mpl-data/fonts/ttf/DejaVuSans-Bold.ttf
p155
sg21
g22
sbag1
(g8
g3
NtRp156
(dp157
g11
g17
sg13
VSTIXSizeFiveSym
p158
sg15
I400
sg16
g17
sg18
g17
sg19
V/usr/local/lib/python2.7/site-packages/matplotlib/mpl-data/fonts/ttf/STIXSizFiveSymReg.ttf
p159
sg21
g22
sbag1
(g8
g3
NtRp160
(dp161
g11
g17
sg13
VDejaVu Sans
p162
sg15
I400
sg16
g17
sg18
g17
sg19
V/usr/local/lib/python2.7/site-packages/matplotlib/mpl-data/fonts/ttf/DejaVuSans.ttf
p163
sg21
g22
sbag1
(g8
g3
NtRp164
(dp165
g11
g17
sg13
VSTIXSizeFourSym
p166
sg15
I700
sg16
g17
sg18
g17
sg19
V/usr/local/lib/python2.7/site-packages/matplotlib/mpl-data/fonts/ttf/STIXSizFourSymBol.ttf
p167
sg21
g22
sbag1
(g8
g3
NtRp168
(dp169
g11
g17
sg13
VDejaVu Serif
p170
sg15
I400
sg16
g17
sg18
g17
sg19
V/usr/local/lib/python2.7/site-packages/matplotlib/mpl-data/fonts/ttf/DejaVuSerif.ttf
p171
sg21
g22
sbag1
(g8
g3
NtRp172
(dp173
g11
g53
sg13
VTrebuchet MS
p174
sg15
I400
sg16
g17
sg18
g17
sg19
V/Library/Fonts/Trebuchet MS Italic.ttf
p175
sg21
g22
sbag1
(g8
g3
NtRp176
(dp177
g11
g17
sg13
VBitstream Vera Sans
p178
sg15
I700
sg16
g17
sg18
g17
sg19
V/usr/X11R6/lib/X11/fonts/TTF/VeraBd.ttf
p179
sg21
g22
sbag1
(g8
g3
NtRp180
(dp181
g11
g17
sg13
VHoefler Text
p182
sg15
I400
sg16
g17
sg18
g17
sg19
V/Library/Fonts/Hoefler Text Ornaments.ttf
p183
sg21
g22
sbag1
(g8
g3
NtRp184
(dp185
g11
g17
sg13
VSystem Font
p186
sg15
I400
sg16
g17
sg18
g17
sg19
V/System/Library/Fonts/SFNSText-HeavyItalic.otf
p187
sg21
g22
sbag1
(g8
g3
NtRp188
(dp189
g11
g17
sg13
VTimes New Roman
p190
sg15
I500
sg16
g17
sg18
g17
sg19
V/Library/Fonts/Times New Roman.ttf
p191
sg21
g22
sbag1
(g8
g3
NtRp192
(dp193
g11
g12
sg13
VBitstream Vera Sans
p194
sg15
I700
sg16
g17
sg18
g17
sg19
V/usr/X11R6/lib/X11/fonts/TTF/VeraBI.ttf
p195
sg21
g22
sbag1
(g8
g3
NtRp196
(dp197
g11
g17
sg13
VOsaka
p198
sg15
I400
sg16
g17
sg18
g17
sg19
V/Library/Fonts/Osaka.ttf
p199
sg21
g22
sbag1
(g8
g3
NtRp200
(dp201
g11
g12
sg13
VLuxi Mono
p202
sg15
I400
sg16
g17
sg18
g17
sg19
V/usr/X11/lib/X11/fonts/TTF/luximri.ttf
p203
sg21
g22
sbag1
(g8
g3
NtRp204
(dp205
g11
g17
sg13
VSerto Urhoy
p206
sg15
I400
sg16
g17
sg18
g17
sg19
V/usr/X11/lib/X11/fonts/OTF/SyrCOMUrhoy.otf
p207
sg21
g22
sbag1
(g8
g3
NtRp208
(dp209
g11
g17
sg13
VVerdana
p210
sg15
I700
sg16
g17
sg18
g17
sg19
V/Library/Fonts/Verdana Bold.ttf
p211
sg21
g22
sbag1
(g8
g3
NtRp212
(dp213
g11
g17
sg13
VSystem Font
p214
sg15
I400
sg16
g17
sg18
g17
sg19
V/System/Library/Fonts/SFNSDisplay-Bold.otf
p215
sg21
g22
sbag1
(g8
g3
NtRp216
(dp217
g11
g17
sg13
VArial Unicode MS
p218
sg15
I400
sg16
g17
sg18
g17
sg19
V/Library/Fonts/Arial Unicode.ttf
p219
sg21
g22
sbag1
(g8
g3
NtRp220
(dp221
g11
g17
sg13
VBitstream Vera Serif
p222
sg15
I400
sg16
g17
sg18
g17
sg19
V/usr/X11/lib/X11/fonts/TTF/VeraSe.ttf
p223
sg21
g22
sbag1
(g8
g3
NtRp224
(dp225
g11
g17
sg13
VSTIXSizeThreeSym
p226
sg15
I400
sg16
g17
sg18
g17
sg19
V/Library/Fonts/STIXSizThreeSymReg.otf
p227
sg21
g22
sbag1
(g8
g3
NtRp228
(dp229
g11
g17
sg13
VDIN Condensed
p230
sg15
I700
sg16
Vcondensed
p231
sg18
g17
sg19
V/Library/Fonts/DIN Condensed Bold.ttf
p232
sg21
g22
sbag1
(g8
g3
NtRp233
(dp234
g11
g12
sg13
VLuxi Sans
p235
sg15
I400
sg16
g17
sg18
g17
sg19
V/usr/X11/lib/X11/fonts/TTF/luxisri.ttf
p236
sg21
g22
sbag1
(g8
g3
NtRp237
(dp238
g11
g12
sg13
VLuxi Serif
p239
sg15
I400
sg16
g17
sg18
g17
sg19
V/usr/X11R6/lib/X11/fonts/TTF/luxirri.ttf
p240
sg21
g22
sbag1
(g8
g3
NtRp241
(dp242
g11
g12
sg13
VBitstream Vera Sans Mono
p243
sg15
I400
sg16
g17
sg18
g17
sg19
V/usr/X11R6/lib/X11/fonts/TTF/VeraMoIt.ttf
p244
sg21
g22
sbag1
(g8
g3
NtRp245
(dp246
g11
g17
sg13
VEstrangelo Nisibin
p247
sg15
I400
sg16
g17
sg18
g17
sg19
V/usr/X11/lib/X11/fonts/OTF/SyrCOMNisibin.otf
p248
sg21
g22
sbag1
(g8
g3
NtRp249
(dp250
g11
g17
sg13
VLiSong Pro
p251
sg15
I400
sg16
g17
sg18
g17
sg19
V/Library/Fonts/\u5137\u5b8b Pro.ttf
p252
sg21
g22
sbag1
(g8
g3
NtRp253
(dp254
g11
g17
sg13
VArial
p255
sg15
I400
sg16
g17
sg18
g17
sg19
V/Library/Fonts/Arial.ttf
p256
sg21
g22
sbag1
(g8
g3
NtRp257
(dp258
g11
g17
sg13
VAppleGothic
p259
sg15
I400
sg16
g17
sg18
g17
sg19
V/Library/Fonts/AppleGothic.ttf
p260
sg21
g22
sbag1
(g8
g3
NtRp261
(dp262
g11
g17
sg13
VYuGothic
p263
sg15
I500
sg16
g17
sg18
g17
sg19
V/Library/Fonts/Yu Gothic Medium.otf
p264
sg21
g22
sbag1
(g8
g3
NtRp265
(dp266
g11
g17
sg13
VArial Narrow
p267
sg15
I400
sg16
g231
sg18
g17
sg19
V/Library/Fonts/Arial Narrow.ttf
p268
sg21
g22
sbag1
(g8
g3
NtRp269
(dp270
g11
g17
sg13
VLuxi Mono
p271
sg15
I700
sg16
g17
sg18
g17
sg19
V/usr/X11/lib/X11/fonts/TTF/luximb.ttf
p272
sg21
g22
sbag1
(g8
g3
NtRp273
(dp274
g11
g17
sg13
VSystem Font
p275
sg15
I400
sg16
g17
sg18
g17
sg19
V/System/Library/Fonts/SFNSDisplay-Medium.otf
p276
sg21
g22
sbag1
(g8
g3
NtRp277
(dp278
g11
g17
sg13
VSerto Batnan
p279
sg15
I700
sg16
g17
sg18
g17
sg19
V/usr/X11/lib/X11/fonts/OTF/SyrCOMBatnanBold.otf
p280
sg21
g22
sbag1
(g8
g3
NtRp281
(dp282
g11
g17
sg13
VAppleMyungjo
p283
sg15
I400
sg16
g17
sg18
g17
sg19
V/Library/Fonts/AppleMyungjo.ttf
p284
sg21
g22
sbag1
(g8
g3
NtRp285
(dp286
g11
g12
sg13
VBitstream Vera Sans Mono
p287
sg15
I700
sg16
g17
sg18
g17
sg19
V/usr/X11R6/lib/X11/fonts/TTF/VeraMoBI.ttf
p288
sg21
g22
sbag1
(g8
g3
NtRp289
(dp290
g11
g17
sg13
VSerto Mardin
p291
sg15
I700
sg16
g17
sg18
g17
sg19
V/usr/X11/lib/X11/fonts/OTF/SyrCOMMardinBold.otf
p292
sg21
g22
sbag1
(g8
g3
NtRp293
(dp294
g11
g17
sg13
VMishafi Gold
p295
sg15
I400
sg16
g17
sg18
g17
sg19
V/Library/Fonts/Mishafi Gold.ttf
p296
sg21
g22
sbag1
(g8
g3
NtRp297
(dp298
g11
g17
sg13
VSerto Jerusalem Outline
p299
sg15
I400
sg16
g17
sg18
g17
sg19
V/usr/X11/lib/X11/fonts/OTF/SyrCOMJerusalemOutline.otf
p300
sg21
g22
sbag1
(g8
g3
NtRp301
(dp302
g11
g17
sg13
VZapf Dingbats
p303
sg15
I400
sg16
g17
sg18
g17
sg19
V/System/Library/Fonts/ZapfDingbats.ttf
p304
sg21
g22
sbag1
(g8
g3
NtRp305
(dp306
g11
g17
sg13
VSTIXIntegralsD
p307
sg15
I700
sg16
g17
sg18
g17
sg19
V/Library/Fonts/STIXIntDBol.otf
p308
sg21
g22
sbag1
(g8
g3
NtRp309
(dp310
g11
g17
sg13
VBitstream Vera Sans
p311
sg15
I400
sg16
g17
sg18
g17
sg19
V/usr/X11R6/lib/X11/fonts/TTF/Vera.ttf
p312
sg21
g22
sbag1
(g8
g3
NtRp313
(dp314
g11
g17
sg13
VSystem Font
p315
sg15
I400
sg16
g17
sg18
g17
sg19
V/System/Library/Fonts/SFNSText-BoldItalicG2.otf
p316
sg21
g22
sbag1
(g8
g3
NtRp317
(dp318
g11
g17
sg13
VDIN Alternate
p319
sg15
I700
sg16
g17
sg18
g17
sg19
V/Library/Fonts/DIN Alternate Bold.ttf
p320
sg21
g22
sbag1
(g8
g3
NtRp321
(dp322
g11
g17
sg13
VBitstream Vera Sans Mono
p323
sg15
I400
sg16
g17
sg18
g17
sg19
V/usr/X11R6/lib/X11/fonts/TTF/VeraMono.ttf
p324
sg21
g22
sbag1
(g8
g3
NtRp325
(dp326
g11
g17
sg13
VSTIXSizeThreeSym
p327
sg15
I700
sg16
g17
sg18
g17
sg19
V/Library/Fonts/STIXSizThreeSymBol.otf
p328
sg21
g22
sbag1
(g8
g3
NtRp329
(dp330
g11
g12
sg13
VLuxi Serif
p331
sg15
I700
sg16
g17
sg18
g17
sg19
V/usr/X11R6/lib/X11/fonts/TTF/luxirbi.ttf
p332
sg21
g22
sbag1
(g8
g3
NtRp333
(dp334
g11
g17
sg13
VCourier New
p335
sg15
I400
sg16
g17
sg18
g17
sg19
V/Library/Fonts/Courier New.ttf
p336
sg21
g22
sbag1
(g8
g3
NtRp337
(dp338
g11
g53
sg13
VArial Narrow
p339
sg15
I700
sg16
g231
sg18
g17
sg19
V/Library/Fonts/Arial Narrow Bold Italic.ttf
p340
sg21
g22
sbag1
(g8
g3
NtRp341
(dp342
g11
g17
sg13
VSerto Jerusalem
p343
sg15
I400
sg16
g17
sg18
g17
sg19
V/usr/X11/lib/X11/fonts/OTF/SyrCOMJerusalem.otf
p344
sg21
g22
sbag1
(g8
g3
NtRp345
(dp346
g11
g17
sg13
VLuminari
p347
sg15
I400
sg16
g17
sg18
g17
sg19
V/Library/Fonts/Luminari.ttf
p348
sg21
g22
sbag1
(g8
g3
NtRp349
(dp350
g11
g17
sg13
VZapfino
p351
sg15
I400
sg16
g17
sg18
g17
sg19
V/Library/Fonts/Zapfino.ttf
p352
sg21
g22
sbag1
(g8
g3
NtRp353
(dp354
g11
g17
sg13
VArial Narrow
p355
sg15
I700
sg16
g231
sg18
g17
sg19
V/Library/Fonts/Arial Narrow Bold.ttf
p356
sg21
g22
sbag1
(g8
g3
NtRp357
(dp358
g11
g53
sg13
VTimes New Roman
p359
sg15
I500
sg16
g17
sg18
g17
sg19
V/Library/Fonts/Times New Roman Italic.ttf
p360
sg21
g22
sbag1
(g8
g3
NtRp361
(dp362
g11
g17
sg13
VKrungthep
p363
sg15
I400
sg16
g17
sg18
g17
sg19
V/Library/Fonts/Krungthep.ttf
p364
sg21
g22
sbag1
(g8
g3
NtRp365
(dp366
g11
g17
sg13
VSystem Font
p367
sg15
I400
sg16
g17
sg18
g17
sg19
V/System/Library/Fonts/SFNSText-RegularItalic.otf
p368
sg21
g22
sbag1
(g8
g3
NtRp369
(dp370
g11
g17
sg13
VSystem Font
p371
sg15
I400
sg16
g17
sg18
g17
sg19
V/System/Library/Fonts/SFNSText-RegularG2.otf
p372
sg21
g22
sbag1
(g8
g3
NtRp373
(dp374
g11
g17
sg13
VGeorgia
p375
sg15
I400
sg16
g17
sg18
g17
sg19
V/Library/Fonts/Georgia.ttf
p376
sg21
g22
sbag1
(g8
g3
NtRp377
(dp378
g11
g17
sg13
VSystem Font
p379
sg15
I400
sg16
g17
sg18
g17
sg19
V/System/Library/Fonts/SFNSText-Medium.otf
p380
sg21
g22
sbag1
(g8
g3
NtRp381
(dp382
g11
g17
sg13
VSTIXIntegralsSm
p383
sg15
I700
sg16
g17
sg18
g17
sg19
V/Library/Fonts/STIXIntSmBol.otf
p384
sg21
g22
sbag1
(g8
g3
NtRp385
(dp386
g11
g17
sg13
VDiwan Thuluth
p387
sg15
I400
sg16
g17
sg18
g17
sg19
V/Library/Fonts/Diwan Thuluth.ttf
p388
sg21
g22
sbag1
(g8
g3
NtRp389
(dp390
g11
g17
sg13
VTrebuchet MS
p391
sg15
I700
sg16
g17
sg18
g17
sg19
V/Library/Fonts/Trebuchet MS Bold.ttf
p392
sg21
g22
sbag1
(g8
g3
NtRp393
(dp394
g11
g17
sg13
VSystem Font
p395
sg15
I400
sg16
g17
sg18
g17
sg19
V/System/Library/Fonts/SFNSText-BoldG1.otf
p396
sg21
g22
sbag1
(g8
g3
NtRp397
(dp398
g11
g17
sg13
VBradley Hand
p399
sg15
I700
sg16
g17
sg18
g17
sg19
V/Library/Fonts/Bradley Hand Bold.ttf
p400
sg21
g22
sbag1
(g8
g3
NtRp401
(dp402
g11
g17
sg13
VSystem Font
p403
sg15
I400
sg16
g17
sg18
g17
sg19
V/System/Library/Fonts/SFNSText-SemiboldItalic.otf
p404
sg21
g22
sbag1
(g8
g3
NtRp405
(dp406
g11
g53
sg13
VTimes New Roman
p407
sg15
I700
sg16
g17
sg18
g17
sg19
V/Library/Fonts/Times New Roman Bold Italic.ttf
p408
sg21
g22
sbag1
(g8
g3
NtRp409
(dp410
g11
g53
sg13
VArial Narrow
p411
sg15
I400
sg16
g231
sg18
g17
sg19
V/Library/Fonts/Arial Narrow Italic.ttf
p412
sg21
g22
sbag1
(g8
g3
NtRp413
(dp414
g11
g17
sg13
VEast Syriac Ctesiphon
p415
sg15
I400
sg16
g17
sg18
g17
sg19
V/usr/X11/lib/X11/fonts/OTF/SyrCOMCtesiphon.otf
p416
sg21
g22
sbag1
(g8
g3
NtRp417
(dp418
g11
g17
sg13
VLuxi Mono
p419
sg15
I400
sg16
g17
sg18
g17
sg19
V/usr/X11R6/lib/X11/fonts/TTF/luximr.ttf
p420
sg21
g22
sbag1
(g8
g3
NtRp421
(dp422
g11
g17
sg13
VSystem Font
p423
sg15
I400
sg16
g17
sg18
g17
sg19
V/System/Library/Fonts/SFNSText-RegularItalicG3.otf
p424
sg21
g22
sbag1
(g8
g3
NtRp425
(dp426
g11
g17
sg13
VPilGi
p427
sg15
I400
sg16
g17
sg18
g17
sg19
V/Library/Fonts/Pilgiche.ttf
p428
sg21
g22
sbag1
(g8
g3
NtRp429
(dp430
g11
g17
sg13
VEstrangelo Midyat
p431
sg15
I400
sg16
g17
sg18
g17
sg19
V/usr/X11/lib/X11/fonts/OTF/SyrCOMMidyat.otf
p432
sg21
g22
sbag1
(g8
g3
NtRp433
(dp434
g11
g17
sg13
VApple Braille
p435
sg15
I400
sg16
g17
sg18
g17
sg19
V/System/Library/Fonts/Apple Braille Outline 8 Dot.ttf
p436
sg21
g22
sbag1
(g8
g3
NtRp437
(dp438
g11
g17
sg13
VSystem Font
p439
sg15
I400
sg16
g17
sg18
g17
sg19
V/System/Library/Fonts/SFNSText-RegularItalicG2.otf
p440
sg21
g22
sbag1
(g8
g3
NtRp441
(dp442
g11
g17
sg13
VPlantagenet Cherokee
p443
sg15
I400
sg16
g17
sg18
g17
sg19
V/Library/Fonts/PlantagenetCherokee.ttf
p444
sg21
g22
sbag1
(g8
g3
NtRp445
(dp446
g11
g17
sg13
VEstrangelo TurAbdin
p447
sg15
I400
sg16
g17
sg18
g17
sg19
V/usr/X11/lib/X11/fonts/OTF/SyrCOMTurAbdin.otf
p448
sg21
g22
sbag1
(g8
g3
NtRp449
(dp450
g11
g17
sg13
VTimes New Roman
p451
sg15
I700
sg16
g17
sg18
g17
sg19
V/Library/Fonts/Times New Roman Bold.ttf
p452
sg21
g22
sbag1
(g8
g3
NtRp453
(dp454
g11
g12
sg13
VBitstream Vera Sans
p455
sg15
I400
sg16
g17
sg18
g17
sg19
V/usr/X11/lib/X11/fonts/TTF/VeraIt.ttf
p456
sg21
g22
sbag1
(g8
g3
NtRp457
(dp458
g11
g12
sg13
VLuxi Sans
p459
sg15
I700
sg16
g17
sg18
g17
sg19
V/usr/X11/lib/X11/fonts/TTF/luxisbi.ttf
p460
sg21
g22
sbag1
(g8
g3
NtRp461
(dp462
g11
g53
sg13
VArial
p463
sg15
I700
sg16
g17
sg18
g17
sg19
V/Library/Fonts/Arial Bold Italic.ttf
p464
sg21
g22
sbag1
(g8
g3
NtRp465
(dp466
g11
g17
sg13
VGoha-Tibeb Zemen
p467
sg15
I400
sg16
g17
sg18
g17
sg19
V/usr/X11/lib/X11/fonts/TTF/GohaTibebZemen.ttf
p468
sg21
g22
sbag1
(g8
g3
NtRp469
(dp470
g11
g17
sg13
VHeadLineA
p471
sg15
I400
sg16
g17
sg18
g17
sg19
V/Library/Fonts/HeadlineA.ttf
p472
sg21
g22
sbag1
(g8
g3
NtRp473
(dp474
g11
g17
sg13
VSTIXVariants
p475
sg15
I400
sg16
g17
sg18
g17
sg19
V/Library/Fonts/STIXVar.otf
p476
sg21
g22
sbag1
(g8
g3
NtRp477
(dp478
g11
g17
sg13
VMishafi
p479
sg15
I400
sg16
g17
sg18
g17
sg19
V/Library/Fonts/Mishafi.ttf
p480
sg21
g22
sbag1
(g8
g3
NtRp481
(dp482
g11
g17
sg13
VSTIXVariants
p483
sg15
I700
sg16
g17
sg18
g17
sg19
V/Library/Fonts/STIXVarBol.otf
p484
sg21
g22
sbag1
(g8
g3
NtRp485
(dp486
g11
g17
sg13
VSystem Font
p487
sg15
I400
sg16
g17
sg18
g17
sg19
V/System/Library/Fonts/SFNSText-BoldItalic.otf
p488
sg21
g22
sbag1
(g8
g3
NtRp489
(dp490
g11
g17
sg13
VSystem Font
p491
sg15
I400
sg16
g17
sg18
g17
sg19
V/System/Library/Fonts/SFNSText-BoldItalicG1.otf
p492
sg21
g22
sbag1
(g8
g3
NtRp493
(dp494
g11
g17
sg13
VSerto Batnan
p495
sg15
I400
sg16
g17
sg18
g17
sg19
V/usr/X11/lib/X11/fonts/OTF/SyrCOMBatnan.otf
p496
sg21
g22
sbag1
(g8
g3
NtRp497
(dp498
g11
g17
sg13
VSTFangsong
p499
sg15
I400
sg16
g17
sg18
g17
sg19
V/Library/Fonts/\u534e\u6587\u4eff\u5b8b.ttf
p500
sg21
g22
sbag1
(g8
g3
NtRp501
(dp502
g11
g17
sg13
VLuxi Serif
p503
sg15
I700
sg16
g17
sg18
g17
sg19
V/usr/X11R6/lib/X11/fonts/TTF/luxirb.ttf
p504
sg21
g22
sbag1
(g8
g3
NtRp505
(dp506
g11
g17
sg13
VSTHeiti
p507
sg15
I400
sg16
g17
sg18
g17
sg19
V/Library/Fonts/\u534e\u6587\u9ed1\u4f53.ttf
p508
sg21
g22
sbag1
(g8
g3
NtRp509
(dp510
g11
g17
sg13
VSystem Font
p511
sg15
I400
sg16
g17
sg18
g17
sg19
V/System/Library/Fonts/SFNSText-Regular.otf
p512
sg21
g22
sbag1
(g8
g3
NtRp513
(dp514
g11
g17
sg13
VSTIXIntegralsUp
p515
sg15
I700
sg16
g17
sg18
g17
sg19
V/Library/Fonts/STIXIntUpBol.otf
p516
sg21
g22
sbag1
(g8
g3
NtRp517
(dp518
g11
g17
sg13
VWawati TC
p519
sg15
I400
sg16
g17
sg18
g17
sg19
V/Library/Fonts/WawaTC-Regular.otf
p520
sg21
g22
sbag1
(g8
g3
NtRp521
(dp522
g11
g17
sg13
VSkia
p523
sg15
I400
sg16
g17
sg18
g17
sg19
V/Library/Fonts/Skia.ttf
p524
sg21
g22
sbag1
(g8
g3
NtRp525
(dp526
g11
g17
sg13
VSTIXSizeFiveSym
p527
sg15
I400
sg16
g17
sg18
g17
sg19
V/Library/Fonts/STIXSizFiveSymReg.otf
p528
sg21
g22
sbag1
(g8
g3
NtRp529
(dp530
g11
g17
sg13
VVerdana
p531
sg15
I400
sg16
g17
sg18
g17
sg19
V/Library/Fonts/Verdana.ttf
p532
sg21
g22
sbag1
(g8
g3
NtRp533
(dp534
g11
g17
sg13
VFarisi
p535
sg15
I400
sg16
g17
sg18
g17
sg19
V/Library/Fonts/Farisi.ttf
p536
sg21
g22
sbag1
(g8
g3
NtRp537
(dp538
g11
g17
sg13
VLuxi Sans
p539
sg15
I700
sg16
g17
sg18
g17
sg19
V/usr/X11/lib/X11/fonts/TTF/luxisb.ttf
p540
sg21
g22
sbag1
(g8
g3
NtRp541
(dp542
g11
g17
sg13
VSerto Urhoy
p543
sg15
I700
sg16
g17
sg18
g17
sg19
V/usr/X11/lib/X11/fonts/OTF/SyrCOMUrhoyBold.otf
p544
sg21
g22
sbag1
(g8
g3
NtRp545
(dp546
g11
g17
sg13
VGurmukhi MT
p547
sg15
I400
sg16
g17
sg18
g17
sg19
V/Library/Fonts/Gurmukhi.ttf
p548
sg21
g22
sbag1
(g8
g3
NtRp549
(dp550
g11
g17
sg13
VBodoni 72 Smallcaps
p551
sg15
I400
sg16
g17
sg18
g17
sg19
V/Library/Fonts/Bodoni 72 Smallcaps Book.ttf
p552
sg21
g22
sbag1
(g8
g3
NtRp553
(dp554
g11
g17
sg13
VYuGothic
p555
sg15
I700
sg16
g17
sg18
g17
sg19
V/Library/Fonts/Yu Gothic Bold.otf
p556
sg21
g22
sbag1
(g8
g3
NtRp557
(dp558
g11
g17
sg13
VSystem Font
p559
sg15
I400
sg16
g17
sg18
g17
sg19
V/System/Library/Fonts/SFNSText-RegularItalicG1.otf
p560
sg21
g22
sbag1
(g8
g3
NtRp561
(dp562
g11
g17
sg13
VSystem Font
p563
sg15
I400
sg16
g17
sg18
g17
sg19
V/System/Library/Fonts/SFNSText-BoldItalicG3.otf
p564
sg21
g22
sbag1
(g8
g3
NtRp565
(dp566
g11
g17
sg13
VSystem Font
p567
sg15
I400
sg16
g17
sg18
g17
sg19
V/System/Library/Fonts/SFNSText-Bold.otf
p568
sg21
g22
sbag1
(g8
g3
NtRp569
(dp570
g11
g17
sg13
VLuxi Sans
p571
sg15
I400
sg16
g17
sg18
g17
sg19
V/usr/X11/lib/X11/fonts/TTF/luxisr.ttf
p572
sg21
g22
sbag1
(g8
g3
NtRp573
(dp574
g11
g53
sg13
VArial
p575
sg15
I400
sg16
g17
sg18
g17
sg19
V/Library/Fonts/Arial Italic.ttf
p576
sg21
g22
sbag1
(g8
g3
NtRp577
(dp578
g11
g17
sg13
VEast Syriac Adiabene
p579
sg15
I400
sg16
g17
sg18
g17
sg19
V/usr/X11/lib/X11/fonts/OTF/SyrCOMAdiabene.otf
p580
sg21
g22
sbag1
(g8
g3
NtRp581
(dp582
g11
g17
sg13
VSystem Font
p583
sg15
I400
sg16
g17
sg18
g17
sg19
V/System/Library/Fonts/SFNSDisplay-Light.otf
p584
sg21
g22
sbag1
(g8
g3
NtRp585
(dp586
g11
g53
sg13
VSTIXNonUnicode
p587
sg15
I700
sg16
g17
sg18
g17
sg19
V/Library/Fonts/STIXNonUniBolIta.otf
p588
sg21
g22
sbag1
(g8
g3
NtRp589
(dp590
g11
g17
sg13
VApple Braille
p591
sg15
I400
sg16
g17
sg18
g17
sg19
V/System/Library/Fonts/Apple Braille Pinpoint 8 Dot.ttf
p592
sg21
g22
sbag1
(g8
g3
NtRp593
(dp594
g11
g53
sg13
VGeorgia
p595
sg15
I400
sg16
g17
sg18
g17
sg19
V/Library/Fonts/Georgia Italic.ttf
p596
sg21
g22
sbag1
(g8
g3
NtRp597
(dp598
g11
g17
sg13
VApple Braille
p599
sg15
I400
sg16
g17
sg18
g17
sg19
V/System/Library/Fonts/Apple Braille Outline 6 Dot.ttf
p600
sg21
g22
sbag1
(g8
g3
NtRp601
(dp602
g11
g53
sg13
VCourier New
p603
sg15
I700
sg16
g17
sg18
g17
sg19
V/Library/Fonts/Courier New Bold Italic.ttf
p604
sg21
g22
sbag1
(g8
g3
NtRp605
(dp606
g11
g17
sg13
VWawati SC
p607
sg15
I400
sg16
g17
sg18
g17
sg19
V/Library/Fonts/WawaSC-Regular.otf
p608
sg21
g22
sbag1
(g8
g3
NtRp609
(dp610
g11
g17
sg13
VEstrangelo Talada
p611
sg15
I400
sg16
g17
sg18
g17
sg19
V/usr/X11/lib/X11/fonts/OTF/SyrCOMTalada.otf
p612
sg21
g22
sbag1
(g8
g3
NtRp613
(dp614
g11
g17
sg13
VSerto Kharput
p615
sg15
I400
sg16
g17
sg18
g17
sg19
V/usr/X11/lib/X11/fonts/OTF/SyrCOMKharput.otf
p616
sg21
g22
sbag1
(g8
g3
NtRp617
(dp618
g11
g17
sg13
VSystem Font
p619
sg15
I400
sg16
g17
sg18
g17
sg19
V/System/Library/Fonts/SFNSText-RegularG3.otf
p620
sg21
g22
sbag1
(g8
g3
NtRp621
(dp622
g11
g17
sg13
VArial Rounded MT Bold
p623
sg15
I700
sg16
g17
sg18
g17
sg19
V/Library/Fonts/Arial Rounded Bold.ttf
p624
sg21
g22
sbag1
(g8
g3
NtRp625
(dp626
g11
g17
sg13
VSystem Font
p627
sg15
I400
sg16
g17
sg18
g17
sg19
V/System/Library/Fonts/SFNSText-Semibold.otf
p628
sg21
g22
sbag1
(g8
g3
NtRp629
(dp630
g11
g17
sg13
VPCMyungjo
p631
sg15
I400
sg16
g17
sg18
g17
sg19
V/Library/Fonts/PCmyoungjo.ttf
p632
sg21
g22
sbag1
(g8
g3
NtRp633
(dp634
g11
g17
sg13
V.LastResort
p635
sg15
I400
sg16
g17
sg18
g17
sg19
V/System/Library/Fonts/LastResort.ttf
p636
sg21
g22
sbag1
(g8
g3
NtRp637
(dp638
g11
g53
sg13
VVerdana
p639
sg15
I700
sg16
g17
sg18
g17
sg19
V/Library/Fonts/Verdana Bold Italic.ttf
p640
sg21
g22
sbag1
(g8
g3
NtRp641
(dp642
g11
g17
sg13
VEstrangelo Quenneshrin
p643
sg15
I400
sg16
g17
sg18
g17
sg19
V/usr/X11/lib/X11/fonts/OTF/SyrCOMQenNeshrin.otf
p644
sg21
g22
sbag1
(g8
g3
NtRp645
(dp646
g11
g17
sg13
VLiHei Pro
p647
sg15
I400
sg16
g17
sg18
g17
sg19
V/Library/Fonts/\u5137\u9ed1 Pro.ttf
p648
sg21
g22
sbag1
(g8
g3
NtRp649
(dp650
g11
g17
sg13
VSystem Font
p651
sg15
I400
sg16
g17
sg18
g17
sg19
V/System/Library/Fonts/SFNSText-LightItalic.otf
p652
sg21
g22
sbag1
(g8
g3
NtRp653
(dp654
g11
g17
sg13
VInaiMathi
p655
sg15
I400
sg16
g17
sg18
g17
sg19
V/Library/Fonts/InaiMathi.ttf
p656
sg21
g22
sbag1
(g8
g3
NtRp657
(dp658
g11
g17
sg13
VSystem Font
p659
sg15
I400
sg16
g17
sg18
g17
sg19
V/System/Library/Fonts/SFNSText-BoldG2.otf
p660
sg21
g22
sbag1
(g8
g3
NtRp661
(dp662
g11
g17
sg13
VSTIXIntegralsSm
p663
sg15
I400
sg16
g17
sg18
g17
sg19
V/Library/Fonts/STIXIntSmReg.otf
p664
sg21
g22
sbag1
(g8
g3
NtRp665
(dp666
g11
g17
sg13
VKokonor
p667
sg15
I400
sg16
g17
sg18
g17
sg19
V/Library/Fonts/Kokonor.ttf
p668
sg21
g22
sbag1
(g8
g3
NtRp669
(dp670
g11
g17
sg13
VGoha-Tibeb Zemen
p671
sg15
I400
sg16
g17
sg18
g17
sg19
V/usr/X11/lib/X11/fonts/OTF/GohaTibebZemen.otf
p672
sg21
g22
sbag1
(g8
g3
NtRp673
(dp674
g11
g53
sg13
VVerdana
p675
sg15
I400
sg16
g17
sg18
g17
sg19
V/Library/Fonts/Verdana Italic.ttf
p676
sg21
g22
sbag1
(g8
g3
NtRp677
(dp678
g11
g17
sg13
VSTIXGeneral
p679
sg15
I700
sg16
g17
sg18
g17
sg19
V/Library/Fonts/STIXGeneralBol.otf
p680
sg21
g22
sbag1
(g8
g3
NtRp681
(dp682
g11
g17
sg13
VApple Braille
p683
sg15
I400
sg16
g17
sg18
g17
sg19
V/System/Library/Fonts/Apple Braille.ttf
p684
sg21
g22
sbag1
(g8
g3
NtRp685
(dp686
g11
g17
sg13
VSystem Font
p687
sg15
I400
sg16
g17
sg18
g17
sg19
V/System/Library/Fonts/SFNSText-Light.otf
p688
sg21
g22
sbag1
(g8
g3
NtRp689
(dp690
g11
g17
sg13
VSystem Font
p691
sg15
I400
sg16
g17
sg18
g17
sg19
V/System/Library/Fonts/SFNSDisplay-Ultralight.otf
p692
sg21
g22
sbag1
(g8
g3
NtRp693
(dp694
g11
g17
sg13
VChalkduster
p695
sg15
I400
sg16
g17
sg18
g17
sg19
V/Library/Fonts/Chalkduster.ttf
p696
sg21
g22
sbag1
(g8
g3
NtRp697
(dp698
g11
g17
sg13
VEstrangelo Antioch
p699
sg15
I400
sg16
g17
sg18
g17
sg19
V/usr/X11/lib/X11/fonts/OTF/SyrCOMAntioch.otf
p700
sg21
g22
sbag1
(g8
g3
NtRp701
(dp702
g11
g17
sg13
VWeibei TC
p703
sg15
I700
sg16
g17
sg18
g17
sg19
V/Library/Fonts/WeibeiTC-Bold.otf
p704
sg21
g22
sbag1
(g8
g3
NtRp705
(dp706
g11
g17
sg13
VSTIXNonUnicode
p707
sg15
I400
sg16
g17
sg18
g17
sg19
V/Library/Fonts/STIXNonUni.otf
p708
sg21
g22
sbag1
(g8
g3
NtRp709
(dp710
g11
g17
sg13
VEstrangelo Edessa
p711
sg15
I400
sg16
g17
sg18
g17
sg19
V/usr/X11/lib/X11/fonts/OTF/SyrCOMEdessa.otf
p712
sg21
g22
sbag1
(g8
g3
NtRp713
(dp714
g11
g17
sg13
VSerto Jerusalem
p715
sg15
I700
sg16
g17
sg18
g17
sg19
V/usr/X11/lib/X11/fonts/OTF/SyrCOMJerusalemBold.otf
p716
sg21
g22
sbag1
(g8
g3
NtRp717
(dp718
g11
g17
sg13
VOsaka
p719
sg15
I400
sg16
g17
sg18
g17
sg19
V/Library/Fonts/OsakaMono.ttf
p720
sg21
g22
sbag1
(g8
g3
NtRp721
(dp722
g11
g53
sg13
VSTIXNonUnicode
p723
sg15
I400
sg16
g17
sg18
g17
sg19
V/Library/Fonts/STIXNonUniIta.otf
p724
sg21
g22
sbag1
(g8
g3
NtRp725
(dp726
g11
g17
sg13
VSTIXIntegralsUp
p727
sg15
I400
sg16
g17
sg18
g17
sg19
V/Library/Fonts/STIXIntUpReg.otf
p728
sg21
g22
sbag1
(g8
g3
NtRp729
(dp730
g11
g17
sg13
VYuppy SC
p731
sg15
I400
sg16
g17
sg18
g17
sg19
V/Library/Fonts/YuppySC-Regular.otf
p732
sg21
g22
sbag1
(g8
g3
NtRp733
(dp734
g11
g17
sg13
VComic Sans MS
p735
sg15
I700
sg16
g17
sg18
g17
sg19
V/Library/Fonts/Comic Sans MS Bold.ttf
p736
sg21
g22
sbag1
(g8
g3
NtRp737
(dp738
g11
g17
sg13
VTrebuchet MS
p739
sg15
I400
sg16
g17
sg18
g17
sg19
V/Library/Fonts/Trebuchet MS.ttf
p740
sg21
g22
sbag1
(g8
g3
NtRp741
(dp742
g11
g17
sg13
VCourier New
p743
sg15
I700
sg16
g17
sg18
g17
sg19
V/Library/Fonts/Courier New Bold.ttf
p744
sg21
g22
sbag1
(g8
g3
NtRp745
(dp746
g11
g17
sg13
VBig Caslon
p747
sg15
I500
sg16
g17
sg18
g17
sg19
V/Library/Fonts/BigCaslon.ttf
p748
sg21
g22
sbag1
(g8
g3
NtRp749
(dp750
g11
g17
sg13
VSystem Font
p751
sg15
I400
sg16
g17
sg18
g17
sg19
V/System/Library/Fonts/SFNSText-Heavy.otf
p752
sg21
g22
sbag1
(g8
g3
NtRp753
(dp754
g11
g17
sg13
VAyuthaya
p755
sg15
I400
sg16
g17
sg18
g17
sg19
V/Library/Fonts/Ayuthaya.ttf
p756
sg21
g22
sbag1
(g8
g3
NtRp757
(dp758
g11
g17
sg13
VHerculanum
p759
sg15
I400
sg16
g17
sg18
g17
sg19
V/Library/Fonts/Herculanum.ttf
p760
sg21
g22
sbag1
(g8
g3
NtRp761
(dp762
g11
g17
sg13
VWebdings
p763
sg15
I400
sg16
g17
sg18
g17
sg19
V/Library/Fonts/Webdings.ttf
p764
sg21
g22
sbag1
(g8
g3
NtRp765
(dp766
g11
g17
sg13
VSystem Font
p767
sg15
I400
sg16
g17
sg18
g17
sg19
V/System/Library/Fonts/SFNSDisplay-Black.otf
p768
sg21
g22
sbag1
(g8
g3
NtRp769
(dp770
g11
g17
sg13
VApple Braille
p771
sg15
I400
sg16
g17
sg18
g17
sg19
V/System/Library/Fonts/Apple Braille Pinpoint 6 Dot.ttf
p772
sg21
g22
sbag1
(g8
g3
NtRp773
(dp774
g11
g17
sg13
VSymbol
p775
sg15
I400
sg16
g17
sg18
g17
sg19
V/System/Library/Fonts/Symbol.ttf
p776
sg21
g22
sbag1
(g8
g3
NtRp777
(dp778
g11
g17
sg13
VSystem Font
p779
sg15
I400
sg16
g17
sg18
g17
sg19
V/System/Library/Fonts/SFNSText-MediumItalic.otf
p780
sg21
g22
sbag1
(g8
g3
NtRp781
(dp782
g11
g53
sg13
VTrebuchet MS
p783
sg15
I700
sg16
g17
sg18
g17
sg19
V/Library/Fonts/Trebuchet MS Bold Italic.ttf
p784
sg21
g22
sbag1
(g8
g3
NtRp785
(dp786
g11
g17
sg13
VBitstream Vera Serif
p787
sg15
I700
sg16
g17
sg18
g17
sg19
V/usr/X11/lib/X11/fonts/TTF/VeraSeBd.ttf
p788
sg21
g22
sbag1
(g8
g3
NtRp789
(dp790
g11
g17
sg13
VSTHeiti
p791
sg15
I400
sg16
g17
sg18
g17
sg19
V/Library/Fonts/\u534e\u6587\u7ec6\u9ed1.ttf
p792
sg21
g22
sbag1
(g8
g3
NtRp793
(dp794
g11
g17
sg13
VSerto Malankara
p795
sg15
I400
sg16
g17
sg18
g17
sg19
V/usr/X11/lib/X11/fonts/OTF/SyrCOMMalankara.otf
p796
sg21
g22
sbag1
(g8
g3
NtRp797
(dp798
g11
g17
sg13
VLuxi Serif
p799
sg15
I400
sg16
g17
sg18
g17
sg19
V/usr/X11R6/lib/X11/fonts/TTF/luxirr.ttf
p800
sg21
g22
sbag1
(g8
g3
NtRp801
(dp802
g11
g17
sg13
VWingdings 2
p803
sg15
I400
sg16
g17
sg18
g17
sg19
V/Library/Fonts/Wingdings 2.ttf
p804
sg21
g22
sbag1
(g8
g3
NtRp805
(dp806
g11
g17
sg13
VSignPainter
p807
sg15
I400
sg16
g17
sg18
g17
sg19
V/Library/Fonts/SignPainter.otf
p808
sg21
g22
sbag1
(g8
g3
NtRp809
(dp810
g11
g17
sg13
VTahoma
p811
sg15
I400
sg16
g17
sg18
g17
sg19
V/Library/Fonts/Tahoma.ttf
p812
sg21
g22
sbag1
(g8
g3
NtRp813
(dp814
g11
g53
sg13
VBrush Script MT
p815
sg15
I400
sg16
g17
sg18
g17
sg19
V/Library/Fonts/Brush Script.ttf
p816
sg21
g22
sbag1
(g8
g3
NtRp817
(dp818
g11
g17
sg13
V.Keyboard
p819
sg15
I400
sg16
g17
sg18
g17
sg19
V/System/Library/Fonts/Keyboard.ttf
p820
sg21
g22
sbag1
(g8
g3
NtRp821
(dp822
g11
g17
sg13
VSTIXSizeOneSym
p823
sg15
I400
sg16
g17
sg18
g17
sg19
V/Library/Fonts/STIXSizOneSymReg.otf
p824
sg21
g22
sbag1
(g8
g3
NtRp825
(dp826
g11
g17
sg13
VSTIXIntegralsUpSm
p827
sg15
I400
sg16
g17
sg18
g17
sg19
V/Library/Fonts/STIXIntUpSmReg.otf
p828
sg21
g22
sbag1
(g8
g3
NtRp829
(dp830
g11
g17
sg13
VAndale Mono
p831
sg15
I400
sg16
g17
sg18
g17
sg19
V/Library/Fonts/Andale Mono.ttf
p832
sg21
g22
sbag1
(g8
g3
NtRp833
(dp834
g11
g17
sg13
VKhmer Sangam MN
p835
sg15
I400
sg16
g17
sg18
g17
sg19
V/Library/Fonts/Khmer Sangam MN.ttf
p836
sg21
g22
sbag1
(g8
g3
NtRp837
(dp838
g11
g12
sg13
VLuxi Mono
p839
sg15
I700
sg16
g17
sg18
g17
sg19
V/usr/X11R6/lib/X11/fonts/TTF/luximbi.ttf
p840
sg21
g22
sbag1
(g8
g3
NtRp841
(dp842
g11
g17
sg13
VMicrosoft Sans Serif
p843
sg15
I400
sg16
g17
sg18
g17
sg19
V/Library/Fonts/Microsoft Sans Serif.ttf
p844
sg21
g22
sbag1
(g8
g3
NtRp845
(dp846
g11
g17
sg13
VSTIXIntegralsUpD
p847
sg15
I700
sg16
g17
sg18
g17
sg19
V/Library/Fonts/STIXIntUpDBol.otf
p848
sg21
g22
sbag1
(g8
g3
NtRp849
(dp850
g11
g17
sg13
VSTIXGeneral
p851
sg15
I400
sg16
g17
sg18
g17
sg19
V/Library/Fonts/STIXGeneral.otf
p852
sg21
g22
sbag1
(g8
g3
NtRp853
(dp854
g11
g53
sg13
VCourier New
p855
sg15
I400
sg16
g17
sg18
g17
sg19
V/Library/Fonts/Courier New Italic.ttf
p856
sg21
g22
sbag1
(g8
g3
NtRp857
(dp858
g11
g17
sg13
VArial Black
p859
sg15
I900
sg16
g17
sg18
g17
sg19
V/Library/Fonts/Arial Black.ttf
p860
sg21
g22
sbag1
(g8
g3
NtRp861
(dp862
g11
g17
sg13
VSerto Mardin
p863
sg15
I400
sg16
g17
sg18
g17
sg19
V/usr/X11/lib/X11/fonts/OTF/SyrCOMMardin.otf
p864
sg21
g22
sbag1
(g8
g3
NtRp865
(dp866
g11
g53
sg13
VSTIXGeneral
p867
sg15
I400
sg16
g17
sg18
g17
sg19
V/Library/Fonts/STIXGeneralItalic.otf
p868
sg21
g22
sbag1
(g8
g3
NtRp869
(dp870
g11
g17
sg13
VSilom
p871
sg15
I400
sg16
g17
sg18
g17
sg19
V/Library/Fonts/Silom.ttf
p872
sg21
g22
sbag1
(g8
g3
NtRp873
(dp874
g11
g17
sg13
VWeibei SC
p875
sg15
I700
sg16
g17
sg18
g17
sg19
V/Library/Fonts/WeibeiSC-Bold.otf
p876
sg21
g22
sbag1
(g8
g3
NtRp877
(dp878
g11
g17
sg13
VYuppy TC
p879
sg15
I400
sg16
g17
sg18
g17
sg19
V/Library/Fonts/YuppyTC-Regular.otf
p880
sg21
g22
sbag1
(g8
g3
NtRp881
(dp882
g11
g17
sg13
VSystem Font
p883
sg15
I400
sg16
g17
sg18
g17
sg19
V/System/Library/Fonts/SFNSText-RegularG1.otf
p884
sg21
g22
sbag1
(g8
g3
NtRp885
(dp886
g11
g17
sg13
VSystem Font
p887
sg15
I400
sg16
g17
sg18
g17
sg19
V/System/Library/Fonts/SFNSDisplay-Thin.otf
p888
sg21
g22
sbag1
(g8
g3
NtRp889
(dp890
g11
g17
sg13
VSTIXSizeFourSym
p891
sg15
I400
sg16
g17
sg18
g17
sg19
V/Library/Fonts/STIXSizFourSymReg.otf
p892
sg21
g22
sbag1
(g8
g3
NtRp893
(dp894
g11
g17
sg13
VApple Chancery
p895
sg15
I400
sg16
g17
sg18
g17
sg19
V/Library/Fonts/Apple Chancery.ttf
p896
sg21
g22
sbag1
(g8
g3
NtRp897
(dp898
g11
g17
sg13
VWingdings 3
p899
sg15
I400
sg16
g17
sg18
g17
sg19
V/Library/Fonts/Wingdings 3.ttf
p900
sg21
g22
sbag1
(g8
g3
NtRp901
(dp902
g11
g53
sg13
VSTIXGeneral
p903
sg15
I700
sg16
g17
sg18
g17
sg19
V/Library/Fonts/STIXGeneralBolIta.otf
p904
sg21
g22
sbag1
(g8
g3
NtRp905
(dp906
g11
g17
sg13
VSTIXIntegralsUpSm
p907
sg15
I700
sg16
g17
sg18
g17
sg19
V/Library/Fonts/STIXIntUpSmBol.otf
p908
sg21
g22
sbag1
(g8
g3
NtRp909
(dp910
g11
g17
sg13
VLao Sangam MN
p911
sg15
I400
sg16
g17
sg18
g17
sg19
V/Library/Fonts/Lao Sangam MN.ttf
p912
sg21
g22
sbag1
(g8
g3
NtRp913
(dp914
g11
g17
sg13
VTrattatello
p915
sg15
I400
sg16
g17
sg18
g17
sg19
V/Library/Fonts/Trattatello.ttf
p916
sg21
g22
sbag1
(g8
g3
NtRp917
(dp918
g11
g17
sg13
VSTIXSizeOneSym
p919
sg15
I700
sg16
g17
sg18
g17
sg19
V/Library/Fonts/STIXSizOneSymBol.otf
p920
sg21
g22
sbag1
(g8
g3
NtRp921
(dp922
g11
g17
sg13
VComic Sans MS
p923
sg15
I400
sg16
g17
sg18
g17
sg19
V/Library/Fonts/Comic Sans MS.ttf
p924
sg21
g22
sbag1
(g8
g3
NtRp925
(dp926
g11
g17
sg13
VSTIXSizeTwoSym
p927
sg15
I400
sg16
g17
sg18
g17
sg19
V/Library/Fonts/STIXSizTwoSymReg.otf
p928
sg21
g22
sbag1
(g8
g3
NtRp929
(dp930
g11
g17
sg13
VEstrangelo Nisibin Outline
p931
sg15
I400
sg16
g17
sg18
g17
sg19
V/usr/X11/lib/X11/fonts/OTF/SyrCOMNisibinOutline.otf
p932
sg21
g22
sbag1
(g8
g3
NtRp933
(dp934
g11
g17
sg13
VBodoni Ornaments
p935
sg15
I400
sg16
g17
sg18
g17
sg19
V/Library/Fonts/Bodoni Ornaments.ttf
p936
sg21
g22
sbag1
(g8
g3
NtRp937
(dp938
g11
g17
sg13
VSTIXSizeFourSym
p939
sg15
I700
sg16
g17
sg18
g17
sg19
V/Library/Fonts/STIXSizFourSymBol.otf
p940
sg21
g22
sbag1
(g8
g3
NtRp941
(dp942
g11
g17
sg13
VSystem Font
p943
sg15
I400
sg16
g17
sg18
g17
sg19
V/System/Library/Fonts/SFNSText-BoldG3.otf
p944
sg21
g22
sbag1
(g8
g3
NtRp945
(dp946
g11
g17
sg13
VArial
p947
sg15
I700
sg16
g17
sg18
g17
sg19
V/Library/Fonts/Arial Bold.ttf
p948
sg21
g22
sbag1
(g8
g3
NtRp949
(dp950
g11
g17
sg13
VGeorgia
p951
sg15
I700
sg16
g17
sg18
g17
sg19
V/Library/Fonts/Georgia Bold.ttf
p952
sg21
g22
sbag1
(g8
g3
NtRp953
(dp954
g11
g17
sg13
VSystem Font
p955
sg15
I400
sg16
g17
sg18
g17
sg19
V/System/Library/Fonts/SFNSDisplay-Semibold.otf
p956
sg21
g22
sbag1
(g8
g3
NtRp957
(dp958
g11
g17
sg13
VSTIXIntegralsD
p959
sg15
I400
sg16
g17
sg18
g17
sg19
V/Library/Fonts/STIXIntDReg.otf
p960
sg21
g22
sbag1
(g8
g3
NtRp961
(dp962
g11
g17
sg13
VGungSeo
p963
sg15
I400
sg16
g17
sg18
g17
sg19
V/Library/Fonts/Gungseouche.ttf
p964
sg21
g22
sbag1
(g8
g3
NtRp965
(dp966
g11
g53
sg13
VSerto Jerusalem
p967
sg15
I400
sg16
g17
sg18
g17
sg19
V/usr/X11/lib/X11/fonts/OTF/SyrCOMJerusalemItalic.otf
p968
sg21
g22
sbag1
(g8
g3
NtRp969
(dp970
g11
g17
sg13
VSTIXSizeTwoSym
p971
sg15
I700
sg16
g17
sg18
g17
sg19
V/Library/Fonts/STIXSizTwoSymBol.otf
p972
sg21
g22
sbag1
(g8
g3
NtRp973
(dp974
g11
g17
sg13
VWingdings
p975
sg15
I400
sg16
g17
sg18
g17
sg19
V/Library/Fonts/Wingdings.ttf
p976
sg21
g22
sbag1
(g8
g3
NtRp977
(dp978
g11
g17
sg13
VImpact
p979
sg15
I400
sg16
g17
sg18
g17
sg19
V/Library/Fonts/Impact.ttf
p980
sg21
g22
sbag1
(g8
g3
NtRp981
(dp982
g11
g17
sg13
VBitstream Vera Sans Mono
p983
sg15
I700
sg16
g17
sg18
g17
sg19
V/usr/X11/lib/X11/fonts/TTF/VeraMoBd.ttf
p984
sg21
g22
sbag1
(g8
g3
NtRp985
(dp986
g11
g17
sg13
VTahoma
p987
sg15
I700
sg16
g17
sg18
g17
sg19
V/Library/Fonts/Tahoma Bold.ttf
p988
sg21
g22
sbag1
(g8
g3
NtRp989
(dp990
g11
g17
sg13
VSTIXNonUnicode
p991
sg15
I700
sg16
g17
sg18
g17
sg19
V/Library/Fonts/STIXNonUniBol.otf
p992
sg21
g22
sbag1
(g8
g3
NtRp993
(dp994
g11
g53
sg13
VGeorgia
p995
sg15
I700
sg16
g17
sg18
g17
sg19
V/Library/Fonts/Georgia Bold Italic.ttf
p996
sg21
g22
sbag1
(g8
g3
NtRp997
(dp998
g11
g17
sg13
VSystem Font
p999
sg15
I400
sg16
g17
sg18
g17
sg19
V/System/Library/Fonts/SFNSDisplay-Heavy.otf
p1000
sg21
g22
sbag1
(g8
g3
NtRp1001
(dp1002
g11
g17
sg13
VSTIXIntegralsUpD
p1003
sg15
I400
sg16
g17
sg18
g17
sg19
V/Library/Fonts/STIXIntUpDReg.otf
p1004
sg21
g22
sbag1
(g8
g3
NtRp1005
(dp1006
g11
g17
sg13
VSathu
p1007
sg15
I400
sg16
g17
sg18
g17
sg19
V/Library/Fonts/Sathu.ttf
p1008
sg21
g22
sbag1
(g8
g3
NtRp1009
(dp1010
g11
g17
sg13
VSystem Font
p1011
sg15
I400
sg16
g17
sg18
g17
sg19
V/System/Library/Fonts/SFNSDisplay-Regular.otf
p1012
sg21
g22
sbasS'defaultFamily'
p1013
(dp1014
Vafm
p1015
VHelvetica
p1016
sVttf
p1017
VDejaVu Sans
p1018
ssS'ttffiles'
p1019
(lp1020
g20
ag26
ag30
ag34
ag38
ag42
ag46
ag50
ag55
ag59
ag63
ag67
ag71
ag75
ag79
ag83
ag87
ag91
ag95
ag99
ag103
ag107
ag111
ag115
ag119
ag123
ag127
ag131
ag135
ag139
ag143
ag147
ag151
ag155
ag159
ag163
ag167
ag171
ag175
ag179
ag183
ag187
ag191
ag195
ag199
ag203
ag207
ag211
ag215
ag219
ag223
ag227
ag232
ag236
ag240
ag244
ag248
ag252
ag256
ag260
ag264
ag268
aV/Library/Fonts/NISC18030.ttf
p1021
ag272
ag276
ag280
ag284
ag288
aV/usr/X11/lib/X11/fonts/TTF/VeraBd.ttf
p1022
ag292
ag296
ag300
ag304
ag308
ag312
ag316
ag320
ag324
ag328
ag332
ag336
ag340
ag344
ag348
ag352
ag356
ag360
ag364
ag368
ag372
ag376
ag380
ag384
ag388
ag392
ag396
ag400
ag404
ag408
ag412
ag416
ag420
ag424
ag428
ag432
ag436
aV/usr/X11R6/lib/X11/fonts/TTF/VeraSe.ttf
p1023
ag440
ag444
ag448
ag452
ag456
ag460
ag464
ag468
ag472
ag476
ag480
ag484
ag488
ag492
ag496
ag500
ag504
aV/usr/X11/lib/X11/fonts/TTF/VeraMono.ttf
p1024
ag508
ag512
ag516
ag520
ag524
ag528
ag532
aV/usr/X11R6/lib/X11/fonts/TTF/luxisbi.ttf
p1025
ag536
ag540
ag544
ag548
ag552
ag556
ag560
aV/System/Library/Fonts/Apple Color Emoji.ttf
p1026
ag564
ag568
ag572
ag576
ag580
ag584
aV/usr/X11/lib/X11/fonts/TTF/VeraMoBI.ttf
p1027
ag588
ag592
ag596
ag600
ag604
ag608
ag612
ag616
ag620
ag624
aV/usr/X11/lib/X11/fonts/TTF/luxirri.ttf
p1028
ag628
ag632
ag636
ag640
ag644
ag648
ag652
ag656
ag660
ag664
ag668
aV/usr/X11R6/lib/X11/fonts/TTF/VeraIt.ttf
p1029
ag672
ag676
ag680
ag684
ag688
ag692
ag696
ag700
ag704
ag708
aV/usr/X11/lib/X11/fonts/TTF/luxirbi.ttf
p1030
ag712
ag716
ag720
aV/usr/X11/lib/X11/fonts/TTF/luxirb.ttf
p1031
ag724
aV/usr/X11/lib/X11/fonts/TTF/VeraMoIt.ttf
p1032
ag728
ag732
aV/usr/X11R6/lib/X11/fonts/TTF/luximb.ttf
p1033
ag736
ag740
aV/usr/X11/lib/X11/fonts/TTF/VeraBI.ttf
p1034
ag744
ag748
ag752
ag756
ag760
ag764
ag768
ag772
ag776
ag780
aV/usr/X11R6/lib/X11/fonts/TTF/luxisr.ttf
p1035
ag784
ag788
ag792
ag796
ag800
ag804
ag808
ag812
ag816
ag820
aV/usr/X11R6/lib/X11/fonts/TTF/VeraSeBd.ttf
p1036
ag824
ag828
ag832
ag836
ag840
ag844
ag848
ag852
ag856
ag860
aV/usr/X11/lib/X11/fonts/TTF/luxirr.ttf
p1037
ag864
ag868
ag872
ag876
aV/usr/X11R6/lib/X11/fonts/TTF/luxisri.ttf
p1038
ag880
ag884
ag888
ag892
ag896
aV/usr/X11/lib/X11/fonts/TTF/luximr.ttf
p1039
aV/usr/X11/lib/X11/fonts/TTF/Vera.ttf
p1040
ag900
ag904
ag908
ag912
aV/usr/X11R6/lib/X11/fonts/TTF/GohaTibebZemen.ttf
p1041
ag916
aV/usr/X11R6/lib/X11/fonts/TTF/luxisb.ttf
p1042
ag920
ag924
ag928
ag932
ag936
ag940
ag944
ag948
ag952
ag956
ag960
ag964
ag968
ag972
ag976
ag980
ag984
ag988
ag992
ag996
ag1000
ag1004
ag1008
aV/usr/X11R6/lib/X11/fonts/TTF/luximri.ttf
p1043
aV/usr/X11R6/lib/X11/fonts/TTF/VeraMoBd.ttf
p1044
ag1012
aV/usr/X11/lib/X11/fonts/TTF/luximbi.ttf
p1045
asS'_FontManager__default_weight'
p1046
Vnormal
p1047
sS'_version'
p1048
I200
sS'default_size'
p1049
NsS'defaultFont'
p1050
(dp1051
g1015
V/usr/local/lib/python2.7/site-packages/matplotlib/mpl-data/fonts/pdfcorefonts/Helvetica-Bold.afm
p1052
sg1017
g20
ssS'afmfiles'
p1053
(lp1054
g1052
aV/usr/local/lib/python2.7/site-packages/matplotlib/mpl-data/fonts/pdfcorefonts/Courier-Oblique.afm
p1055
aV/usr/local/lib/python2.7/site-packages/matplotlib/mpl-data/fonts/afm/phvb8a.afm
p1056
aV/usr/local/lib/python2.7/site-packages/matplotlib/mpl-data/fonts/pdfcorefonts/Times-Bold.afm
p1057
aV/usr/local/lib/python2.7/site-packages/matplotlib/mpl-data/fonts/afm/pbkli8a.afm
p1058
aV/usr/local/lib/python2.7/site-packages/matplotlib/mpl-data/fonts/pdfcorefonts/Courier-BoldOblique.afm
p1059
aV/usr/local/lib/python2.7/site-packages/matplotlib/mpl-data/fonts/afm/phvr8an.afm
p1060
aV/usr/local/lib/python2.7/site-packages/matplotlib/mpl-data/fonts/pdfcorefonts/Courier.afm
p1061
aV/usr/local/lib/python2.7/site-packages/matplotlib/mpl-data/fonts/afm/ptmri8a.afm
p1062
aV/usr/local/lib/python2.7/site-packages/matplotlib/mpl-data/fonts/afm/cmex10.afm
p1063
aV/usr/local/lib/python2.7/site-packages/matplotlib/mpl-data/fonts/afm/pzdr.afm
p1064
aV/usr/local/lib/python2.7/site-packages/matplotlib/mpl-data/fonts/afm/phvr8a.afm
p1065
aV/usr/local/lib/python2.7/site-packages/matplotlib/mpl-data/fonts/afm/pncbi8a.afm
p1066
aV/usr/local/lib/python2.7/site-packages/matplotlib/mpl-data/fonts/afm/phvbo8an.afm
p1067
aV/usr/local/lib/python2.7/site-packages/matplotlib/mpl-data/fonts/afm/pagd8a.afm
p1068
aV/usr/local/lib/python2.7/site-packages/matplotlib/mpl-data/fonts/afm/pplbi8a.afm
p1069
aV/usr/local/lib/python2.7/site-packages/matplotlib/mpl-data/fonts/afm/cmtt10.afm
p1070
aV/usr/local/lib/python2.7/site-packages/matplotlib/mpl-data/fonts/afm/putri8a.afm
p1071
aV/usr/local/lib/python2.7/site-packages/matplotlib/mpl-data/fonts/afm/pplr8a.afm
p1072
aV/usr/local/lib/python2.7/site-packages/matplotlib/mpl-data/fonts/afm/cmsy10.afm
p1073
aV/usr/local/lib/python2.7/site-packages/matplotlib/mpl-data/fonts/afm/putb8a.afm
p1074
aV/usr/local/lib/python2.7/site-packages/matplotlib/mpl-data/fonts/pdfcorefonts/Helvetica.afm
p1075
aV/usr/local/lib/python2.7/site-packages/matplotlib/mpl-data/fonts/afm/pplb8a.afm
p1076
aV/usr/local/lib/python2.7/site-packages/matplotlib/mpl-data/fonts/afm/phvb8an.afm
p1077
aV/usr/local/lib/python2.7/site-packages/matplotlib/mpl-data/fonts/afm/putr8a.afm
p1078
aV/usr/local/lib/python2.7/site-packages/matplotlib/mpl-data/fonts/afm/phvro8a.afm
p1079
aV/usr/local/lib/python2.7/site-packages/matplotlib/mpl-data/fonts/pdfcorefonts/Helvetica-BoldOblique.afm
p1080
aV/usr/local/lib/python2.7/site-packages/matplotlib/mpl-data/fonts/pdfcorefonts/Symbol.afm
p1081
aV/usr/local/lib/python2.7/site-packages/matplotlib/mpl-data/fonts/afm/pplri8a.afm
p1082
aV/usr/local/lib/python2.7/site-packages/matplotlib/mpl-data/fonts/pdfcorefonts/Times-Italic.afm
p1083
aV/usr/local/lib/python2.7/site-packages/matplotlib/mpl-data/fonts/afm/ptmb8a.afm
p1084
aV/usr/local/lib/python2.7/site-packages/matplotlib/mpl-data/fonts/afm/ptmr8a.afm
p1085
aV/usr/local/lib/python2.7/site-packages/matplotlib/mpl-data/fonts/afm/phvl8a.afm
p1086
aV/usr/local/lib/python2.7/site-packages/matplotlib/mpl-data/fonts/afm/putbi8a.afm
p1087
aV/usr/local/lib/python2.7/site-packages/matplotlib/mpl-data/fonts/afm/pncri8a.afm
p1088
aV/usr/local/lib/python2.7/site-packages/matplotlib/mpl-data/fonts/afm/cmr10.afm
p1089
aV/usr/local/lib/python2.7/site-packages/matplotlib/mpl-data/fonts/afm/pbkl8a.afm
p1090
aV/usr/local/lib/python2.7/site-packages/matplotlib/mpl-data/fonts/pdfcorefonts/Helvetica-Oblique.afm
p1091
aV/usr/local/lib/python2.7/site-packages/matplotlib/mpl-data/fonts/pdfcorefonts/Times-BoldItalic.afm
p1092
aV/usr/local/lib/python2.7/site-packages/matplotlib/mpl-data/fonts/afm/phvlo8a.afm
p1093
aV/usr/local/lib/python2.7/site-packages/matplotlib/mpl-data/fonts/afm/pcrbo8a.afm
p1094
aV/usr/local/lib/python2.7/site-packages/matplotlib/mpl-data/fonts/pdfcorefonts/Courier-Bold.afm
p1095
aV/usr/local/lib/python2.7/site-packages/matplotlib/mpl-data/fonts/afm/phvro8an.afm
p1096
aV/usr/local/lib/python2.7/site-packages/matplotlib/mpl-data/fonts/afm/ptmbi8a.afm
p1097
aV/usr/local/lib/python2.7/site-packages/matplotlib/mpl-data/fonts/afm/pcrb8a.afm
p1098
aV/usr/local/lib/python2.7/site-packages/matplotlib/mpl-data/fonts/afm/phvbo8a.afm
p1099
aV/usr/local/lib/python2.7/site-packages/matplotlib/mpl-data/fonts/afm/pncr8a.afm
p1100
aV/usr/local/lib/python2.7/site-packages/matplotlib/mpl-data/fonts/afm/psyr.afm
p1101
aV/usr/local/lib/python2.7/site-packages/matplotlib/mpl-data/fonts/afm/pcrro8a.afm
p1102
aV/usr/local/lib/python2.7/site-packages/matplotlib/mpl-data/fonts/pdfcorefonts/ZapfDingbats.afm
p1103
aV/usr/local/lib/python2.7/site-packages/matplotlib/mpl-data/fonts/afm/cmmi10.afm
p1104
aV/usr/local/lib/python2.7/site-packages/matplotlib/mpl-data/fonts/afm/pcrr8a.afm
p1105
aV/usr/local/lib/python2.7/site-packages/matplotlib/mpl-data/fonts/afm/pncb8a.afm
p1106
aV/usr/local/lib/python2.7/site-packages/matplotlib/mpl-data/fonts/afm/pbkd8a.afm
p1107
aV/usr/local/lib/python2.7/site-packages/matplotlib/mpl-data/fonts/afm/pzcmi8a.afm
p1108
aV/usr/local/lib/python2.7/site-packages/matplotlib/mpl-data/fonts/afm/pagko8a.afm
p1109
aV/usr/local/lib/python2.7/site-packages/matplotlib/mpl-data/fonts/pdfcorefonts/Times-Roman.afm
p1110
aV/usr/local/lib/python2.7/site-packages/matplotlib/mpl-data/fonts/afm/pagk8a.afm
p1111
aV/usr/local/lib/python2.7/site-packages/matplotlib/mpl-data/fonts/afm/pagdo8a.afm
p1112
aV/usr/local/lib/python2.7/site-packages/matplotlib/mpl-data/fonts/afm/pbkdi8a.afm
p1113
aV/usr/X11/lib/X11/fonts/Type1/UTB_____.afm
p1114
aV/usr/X11/lib/X11/fonts/Type1/c0583bt_.afm
p1115
aV/usr/X11/lib/X11/fonts/Type1/l049036t.afm
p1116
aV/usr/X11/lib/X11/fonts/Type1/c0649bt_.afm
p1117
aV/usr/X11/lib/X11/fonts/Type1/UTRG____.afm
p1118
aV/usr/X11/lib/X11/fonts/Type1/c0582bt_.afm
p1119
aV/usr/X11/lib/X11/fonts/Type1/c0648bt_.afm
p1120
aV/usr/X11/lib/X11/fonts/Type1/c0633bt_.afm
p1121
aV/usr/X11/lib/X11/fonts/Type1/l048013t.afm
p1122
aV/usr/X11/lib/X11/fonts/Type1/courb.afm
p1123
aV/usr/X11/lib/X11/fonts/Type1/c0419bt_.afm
p1124
aV/usr/X11/lib/X11/fonts/Type1/UTI_____.afm
p1125
aV/usr/X11/lib/X11/fonts/Type1/l049016t.afm
p1126
aV/usr/X11/lib/X11/fonts/Type1/l048033t.afm
p1127
aV/usr/X11/lib/X11/fonts/Type1/l048016t.afm
p1128
aV/usr/X11/lib/X11/fonts/Type1/l048036t.afm
p1129
aV/usr/X11/lib/X11/fonts/Type1/courbi.afm
p1130
aV/usr/X11/lib/X11/fonts/Type1/c0632bt_.afm
p1131
aV/usr/X11/lib/X11/fonts/Type1/l049013t.afm
p1132
aV/usr/X11/lib/X11/fonts/Type1/c0611bt_.afm
p1133
aV/usr/X11/lib/X11/fonts/Type1/l047036t.afm
p1134
aV/usr/X11/lib/X11/fonts/Type1/l047016t.afm
p1135
aV/usr/X11/lib/X11/fonts/Type1/l047033t.afm
p1136
aV/usr/X11/lib/X11/fonts/Type1/l047013t.afm
p1137
aV/usr/X11/lib/X11/fonts/Type1/l049033t.afm
p1138
aV/usr/X11/lib/X11/fonts/Type1/UTBI____.afm
p1139
aV/usr/X11/lib/X11/fonts/Type1/cour.afm
p1140
aV/usr/X11/lib/X11/fonts/Type1/couri.afm
p1141
asS'afmlist'
p1142
(lp1143
g1
(g8
g3
NtRp1144
(dp1145
g11
Vnormal
p1146
sg13
S'Helvetica'
p1147
sg15
I700
sg16
g1146
sg18
g1146
sg19
g1052
sg21
Vscalable
p1148
sbag1
(g8
g3
NtRp1149
(dp1150
g11
Vitalic
p1151
sg13
S'Courier'
p1152
sg15
I500
sg16
g1146
sg18
g1146
sg19
g1055
sg21
g1148
sbag1
(g8
g3
NtRp1153
(dp1154
g11
g1146
sg13
S'Helvetica'
p1155
sg15
I700
sg16
g1146
sg18
g1146
sg19
g1056
sg21
g1148
sbag1
(g8
g3
NtRp1156
(dp1157
g11
g1146
sg13
S'Times'
p1158
sg15
I700
sg16
g1146
sg18
g1146
sg19
g1057
sg21
g1148
sbag1
(g8
g3
NtRp1159
(dp1160
g11
g1151
sg13
S'ITC Bookman'
p1161
sg15
I200
sg16
g1146
sg18
g1146
sg19
g1058
sg21
g1148
sbag1
(g8
g3
NtRp1162
(dp1163
g11
g1151
sg13
S'Courier'
p1164
sg15
I700
sg16
g1146
sg18
g1146
sg19
g1059
sg21
g1148
sbag1
(g8
g3
NtRp1165
(dp1166
g11
g1146
sg13
S'Helvetica'
p1167
sg15
I500
sg16
Vcondensed
p1168
sg18
g1146
sg19
g1060
sg21
g1148
sbag1
(g8
g3
NtRp1169
(dp1170
g11
g1146
sg13
S'Courier'
p1171
sg15
I500
sg16
g1146
sg18
g1146
sg19
g1061
sg21
g1148
sbag1
(g8
g3
NtRp1172
(dp1173
g11
g1151
sg13
S'Times'
p1174
sg15
I500
sg16
g1146
sg18
g1146
sg19
g1062
sg21
g1148
sbag1
(g8
g3
NtRp1175
(dp1176
g11
g1146
sg13
S'Computer Modern'
p1177
sg15
I500
sg16
g1146
sg18
g1146
sg19
g1063
sg21
g1148
sbag1
(g8
g3
NtRp1178
(dp1179
g11
g1146
sg13
S'ITC Zapf Dingbats'
p1180
sg15
I500
sg16
g1146
sg18
g1146
sg19
g1064
sg21
g1148
sbag1
(g8
g3
NtRp1181
(dp1182
g11
g1146
sg13
S'Helvetica'
p1183
sg15
I500
sg16
g1146
sg18
g1146
sg19
g1065
sg21
g1148
sbag1
(g8
g3
NtRp1184
(dp1185
g11
g1151
sg13
S'New Century Schoolbook'
p1186
sg15
I700
sg16
g1146
sg18
g1146
sg19
g1066
sg21
g1148
sbag1
(g8
g3
NtRp1187
(dp1188
g11
g1151
sg13
S'Helvetica'
p1189
sg15
I700
sg16
g1168
sg18
g1146
sg19
g1067
sg21
g1148
sbag1
(g8
g3
NtRp1190
(dp1191
g11
g1146
sg13
S'ITC Avant Garde Gothic'
p1192
sg15
I600
sg16
g1146
sg18
g1146
sg19
g1068
sg21
g1148
sbag1
(g8
g3
NtRp1193
(dp1194
g11
g1151
sg13
S'Palatino'
p1195
sg15
I700
sg16
g1146
sg18
g1146
sg19
g1069
sg21
g1148
sbag1
(g8
g3
NtRp1196
(dp1197
g11
g1146
sg13
S'Computer Modern'
p1198
sg15
I500
sg16
g1146
sg18
g1146
sg19
g1070
sg21
g1148
sbag1
(g8
g3
NtRp1199
(dp1200
g11
g1151
sg13
S'Utopia'
p1201
sg15
I400
sg16
g1146
sg18
g1146
sg19
g1071
sg21
g1148
sbag1
(g8
g3
NtRp1202
(dp1203
g11
g1146
sg13
S'Palatino'
p1204
sg15
I500
sg16
g1146
sg18
g1146
sg19
g1072
sg21
g1148
sbag1
(g8
g3
NtRp1205
(dp1206
g11
g1151
sg13
S'Computer Modern'
p1207
sg15
I500
sg16
g1146
sg18
g1146
sg19
g1073
sg21
g1148
sbag1
(g8
g3
NtRp1208
(dp1209
g11
g1146
sg13
S'Utopia'
p1210
sg15
I700
sg16
g1146
sg18
g1146
sg19
g1074
sg21
g1148
sbag1
(g8
g3
NtRp1211
(dp1212
g11
g1146
sg13
S'Helvetica'
p1213
sg15
I500
sg16
g1146
sg18
g1146
sg19
g1075
sg21
g1148
sbag1
(g8
g3
NtRp1214
(dp1215
g11
g1146
sg13
S'Palatino'
p1216
sg15
I700
sg16
g1146
sg18
g1146
sg19
g1076
sg21
g1148
sbag1
(g8
g3
NtRp1217
(dp1218
g11
g1146
sg13
S'Helvetica'
p1219
sg15
I700
sg16
g1168
sg18
g1146
sg19
g1077
sg21
g1148
sbag1
(g8
g3
NtRp1220
(dp1221
g11
g1146
sg13
S'Utopia'
p1222
sg15
I400
sg16
g1146
sg18
g1146
sg19
g1078
sg21
g1148
sbag1
(g8
g3
NtRp1223
(dp1224
g11
g1151
sg13
S'Helvetica'
p1225
sg15
I500
sg16
g1146
sg18
g1146
sg19
g1079
sg21
g1148
sbag1
(g8
g3
NtRp1226
(dp1227
g11
g1151
sg13
S'Helvetica'
p1228
sg15
I700
sg16
g1146
sg18
g1146
sg19
g1080
sg21
g1148
sbag1
(g8
g3
NtRp1229
(dp1230
g11
g1146
sg13
S'Symbol'
p1231
sg15
I500
sg16
g1146
sg18
g1146
sg19
g1081
sg21
g1148
sbag1
(g8
g3
NtRp1232
(dp1233
g11
g1151
sg13
S'Palatino'
p1234
sg15
I500
sg16
g1146
sg18
g1146
sg19
g1082
sg21
g1148
sbag1
(g8
g3
NtRp1235
(dp1236
g11
g1151
sg13
S'Times'
p1237
sg15
I500
sg16
g1146
sg18
g1146
sg19
g1083
sg21
g1148
sbag1
(g8
g3
NtRp1238
(dp1239
g11
g1146
sg13
S'Times'
p1240
sg15
I700
sg16
g1146
sg18
g1146
sg19
g1084
sg21
g1148
sbag1
(g8
g3
NtRp1241
(dp1242
g11
g1146
sg13
S'Times'
p1243
sg15
I500
sg16
g1146
sg18
g1146
sg19
g1085
sg21
g1148
sbag1
(g8
g3
NtRp1244
(dp1245
g11
g1146
sg13
S'Helvetica'
p1246
sg15
I200
sg16
g1146
sg18
g1146
sg19
g1086
sg21
g1148
sbag1
(g8
g3
NtRp1247
(dp1248
g11
g1151
sg13
S'Utopia'
p1249
sg15
I700
sg16
g1146
sg18
g1146
sg19
g1087
sg21
g1148
sbag1
(g8
g3
NtRp1250
(dp1251
g11
g1151
sg13
S'New Century Schoolbook'
p1252
sg15
I500
sg16
g1146
sg18
g1146
sg19
g1088
sg21
g1148
sbag1
(g8
g3
NtRp1253
(dp1254
g11
g1146
sg13
S'Computer Modern'
p1255
sg15
I500
sg16
g1146
sg18
g1146
sg19
g1089
sg21
g1148
sbag1
(g8
g3
NtRp1256
(dp1257
g11
g1146
sg13
S'ITC Bookman'
p1258
sg15
I200
sg16
g1146
sg18
g1146
sg19
g1090
sg21
g1148
sbag1
(g8
g3
NtRp1259
(dp1260
g11
g1151
sg13
S'Helvetica'
p1261
sg15
I500
sg16
g1146
sg18
g1146
sg19
g1091
sg21
g1148
sbag1
(g8
g3
NtRp1262
(dp1263
g11
g1151
sg13
S'Times'
p1264
sg15
I700
sg16
g1146
sg18
g1146
sg19
g1092
sg21
g1148
sbag1
(g8
g3
NtRp1265
(dp1266
g11
g1151
sg13
S'Helvetica'
p1267
sg15
I200
sg16
g1146
sg18
g1146
sg19
g1093
sg21
g1148
sbag1
(g8
g3
NtRp1268
(dp1269
g11
g1151
sg13
S'Courier'
p1270
sg15
I700
sg16
g1146
sg18
g1146
sg19
g1094
sg21
g1148
sbag1
(g8
g3
NtRp1271
(dp1272
g11
g1146
sg13
S'Courier'
p1273
sg15
I700
sg16
g1146
sg18
g1146
sg19
g1095
sg21
g1148
sbag1
(g8
g3
NtRp1274
(dp1275
g11
g1151
sg13
S'Helvetica'
p1276
sg15
I500
sg16
g1168
sg18
g1146
sg19
g1096
sg21
g1148
sbag1
(g8
g3
NtRp1277
(dp1278
g11
g1151
sg13
S'Times'
p1279
sg15
I700
sg16
g1146
sg18
g1146
sg19
g1097
sg21
g1148
sbag1
(g8
g3
NtRp1280
(dp1281
g11
g1146
sg13
S'Courier'
p1282
sg15
I700
sg16
g1146
sg18
g1146
sg19
g1098
sg21
g1148
sbag1
(g8
g3
NtRp1283
(dp1284
g11
g1151
sg13
S'Helvetica'
p1285
sg15
I700
sg16
g1146
sg18
g1146
sg19
g1099
sg21
g1148
sbag1
(g8
g3
NtRp1286
(dp1287
g11
g1146
sg13
S'New Century Schoolbook'
p1288
sg15
I500
sg16
g1146
sg18
g1146
sg19
g1100
sg21
g1148
sbag1
(g8
g3
NtRp1289
(dp1290
g11
g1146
sg13
S'Symbol'
p1291
sg15
I500
sg16
g1146
sg18
g1146
sg19
g1101
sg21
g1148
sbag1
(g8
g3
NtRp1292
(dp1293
g11
g1151
sg13
S'Courier'
p1294
sg15
I500
sg16
g1146
sg18
g1146
sg19
g1102
sg21
g1148
sbag1
(g8
g3
NtRp1295
(dp1296
g11
g1146
sg13
S'ZapfDingbats'
p1297
sg15
I500
sg16
g1146
sg18
g1146
sg19
g1103
sg21
g1148
sbag1
(g8
g3
NtRp1298
(dp1299
g11
g1151
sg13
S'Computer Modern'
p1300
sg15
I500
sg16
g1146
sg18
g1146
sg19
g1104
sg21
g1148
sbag1
(g8
g3
NtRp1301
(dp1302
g11
g1146
sg13
S'Courier'
p1303
sg15
I500
sg16
g1146
sg18
g1146
sg19
g1105
sg21
g1148
sbag1
(g8
g3
NtRp1304
(dp1305
g11
g1146
sg13
S'New Century Schoolbook'
p1306
sg15
I700
sg16
g1146
sg18
g1146
sg19
g1106
sg21
g1148
sbag1
(g8
g3
NtRp1307
(dp1308
g11
g1146
sg13
S'ITC Bookman'
p1309
sg15
I600
sg16
g1146
sg18
g1146
sg19
g1107
sg21
g1148
sbag1
(g8
g3
NtRp1310
(dp1311
g11
g1151
sg13
S'ITC Zapf Chancery'
p1312
sg15
I500
sg16
g1146
sg18
g1146
sg19
g1108
sg21
g1148
sbag1
(g8
g3
NtRp1313
(dp1314
g11
g1151
sg13
S'ITC Avant Garde Gothic'
p1315
sg15
I400
sg16
g1146
sg18
g1146
sg19
g1109
sg21
g1148
sbag1
(g8
g3
NtRp1316
(dp1317
g11
g1146
sg13
S'Times'
p1318
sg15
I500
sg16
g1146
sg18
g1146
sg19
g1110
sg21
g1148
sbag1
(g8
g3
NtRp1319
(dp1320
g11
g1146
sg13
S'ITC Avant Garde Gothic'
p1321
sg15
I400
sg16
g1146
sg18
g1146
sg19
g1111
sg21
g1148
sbag1
(g8
g3
NtRp1322
(dp1323
g11
g1151
sg13
S'ITC Avant Garde Gothic'
p1324
sg15
I600
sg16
g1146
sg18
g1146
sg19
g1112
sg21
g1148
sbag1
(g8
g3
NtRp1325
(dp1326
g11
g1151
sg13
S'ITC Bookman'
p1327
sg15
I600
sg16
g1146
sg18
g1146
sg19
g1113
sg21
g1148
sbag1
(g8
g3
NtRp1328
(dp1329
g11
g1146
sg13
S'Utopia'
p1330
sg15
I700
sg16
g1146
sg18
g1146
sg19
g1114
sg21
g1148
sbag1
(g8
g3
NtRp1331
(dp1332
g11
g1146
sg13
S'Courier 10 Pitch'
p1333
sg15
I700
sg16
g1146
sg18
g1146
sg19
g1115
sg21
g1148
sbag1
(g8
g3
NtRp1334
(dp1335
g11
g1151
sg13
S'Luxi Serif'
p1336
sg15
I700
sg16
g1146
sg18
g1146
sg19
g1116
sg21
g1148
sbag1
(g8
g3
NtRp1337
(dp1338
g11
g1151
sg13
S'Bitstream Charter'
p1339
sg15
I400
sg16
g1146
sg18
g1146
sg19
g1117
sg21
g1148
sbag1
(g8
g3
NtRp1340
(dp1341
g11
g1146
sg13
S'Utopia'
p1342
sg15
I400
sg16
g1146
sg18
g1146
sg19
g1118
sg21
g1148
sbag1
(g8
g3
NtRp1343
(dp1344
g11
g1151
sg13
S'Courier 10 Pitch'
p1345
sg15
I400
sg16
g1146
sg18
g1146
sg19
g1119
sg21
g1148
sbag1
(g8
g3
NtRp1346
(dp1347
g11
g1146
sg13
S'Bitstream Charter'
p1348
sg15
I400
sg16
g1146
sg18
g1146
sg19
g1120
sg21
g1148
sbag1
(g8
g3
NtRp1349
(dp1350
g11
g1151
sg13
S'Bitstream Charter'
p1351
sg15
I700
sg16
g1146
sg18
g1146
sg19
g1121
sg21
g1148
sbag1
(g8
g3
NtRp1352
(dp1353
g11
g1146
sg13
S'Luxi Sans'
p1354
sg15
I400
sg16
g1146
sg18
g1146
sg19
g1122
sg21
g1148
sbag1
(g8
g3
NtRp1355
(dp1356
g11
g1146
sg13
S'Courier'
p1357
sg15
I700
sg16
g1146
sg18
g1146
sg19
g1123
sg21
g1148
sbag1
(g8
g3
NtRp1358
(dp1359
g11
g1146
sg13
S'Courier 10 Pitch'
p1360
sg15
I400
sg16
g1146
sg18
g1146
sg19
g1124
sg21
g1148
sbag1
(g8
g3
NtRp1361
(dp1362
g11
g1151
sg13
S'Utopia'
p1363
sg15
I400
sg16
g1146
sg18
g1146
sg19
g1125
sg21
g1148
sbag1
(g8
g3
NtRp1364
(dp1365
g11
g1146
sg13
S'Luxi Serif'
p1366
sg15
I700
sg16
g1146
sg18
g1146
sg19
g1126
sg21
g1148
sbag1
(g8
g3
NtRp1367
(dp1368
g11
g1151
sg13
S'Luxi Sans'
p1369
sg15
I400
sg16
g1146
sg18
g1146
sg19
g1127
sg21
g1148
sbag1
(g8
g3
NtRp1370
(dp1371
g11
g1146
sg13
S'Luxi Sans'
p1372
sg15
I700
sg16
g1146
sg18
g1146
sg19
g1128
sg21
g1148
sbag1
(g8
g3
NtRp1373
(dp1374
g11
g1151
sg13
S'Luxi Sans'
p1375
sg15
I700
sg16
g1146
sg18
g1146
sg19
g1129
sg21
g1148
sbag1
(g8
g3
NtRp1376
(dp1377
g11
g1151
sg13
S'Courier'
p1378
sg15
I700
sg16
g1146
sg18
g1146
sg19
g1130
sg21
g1148
sbag1
(g8
g3
NtRp1379
(dp1380
g11
g1146
sg13
S'Bitstream Charter'
p1381
sg15
I700
sg16
g1146
sg18
g1146
sg19
g1131
sg21
g1148
sbag1
(g8
g3
NtRp1382
(dp1383
g11
g1146
sg13
S'Luxi Serif'
p1384
sg15
I400
sg16
g1146
sg18
g1146
sg19
g1132
sg21
g1148
sbag1
(g8
g3
NtRp1385
(dp1386
g11
g1151
sg13
S'Courier 10 Pitch'
p1387
sg15
I700
sg16
g1146
sg18
g1146
sg19
g1133
sg21
g1148
sbag1
(g8
g3
NtRp1388
(dp1389
g11
g1151
sg13
S'Luxi Mono'
p1390
sg15
I700
sg16
g1146
sg18
g1146
sg19
g1134
sg21
g1148
sbag1
(g8
g3
NtRp1391
(dp1392
g11
g1146
sg13
S'Luxi Mono'
p1393
sg15
I700
sg16
g1146
sg18
g1146
sg19
g1135
sg21
g1148
sbag1
(g8
g3
NtRp1394
(dp1395
g11
g1151
sg13
S'Luxi Mono'
p1396
sg15
I400
sg16
g1146
sg18
g1146
sg19
g1136
sg21
g1148
sbag1
(g8
g3
NtRp1397
(dp1398
g11
g1146
sg13
S'Luxi Mono'
p1399
sg15
I400
sg16
g1146
sg18
g1146
sg19
g1137
sg21
g1148
sbag1
(g8
g3
NtRp1400
(dp1401
g11
g1151
sg13
S'Luxi Serif'
p1402
sg15
I400
sg16
g1146
sg18
g1146
sg19
g1138
sg21
g1148
sbag1
(g8
g3
NtRp1403
(dp1404
g11
g1151
sg13
S'Utopia'
p1405
sg15
I700
sg16
g1146
sg18
g1146
sg19
g1139
sg21
g1148
sbag1
(g8
g3
NtRp1406
(dp1407
g11
g1146
sg13
S'Courier'
p1408
sg15
I400
sg16
g1146
sg18
g1146
sg19
g1140
sg21
g1148
sbag1
(g8
g3
NtRp1409
(dp1410
g11
g1151
sg13
S'Courier'
p1411
sg15
I400
sg16
g1146
sg18
g1146
sg19
g1141
sg21
g1148
sbasb.